; Function Attrs: uwtable
define hidden void @_ZTvn48_n72_NK5osgeo4proj3crs14EngineeringCRS13_exportToJSONEPNS0_2io13JSONFormatterE(ptr noundef %0, ptr noundef nonnull %1) unnamed_addr #7 align 2 {
  %3 = getelementptr inbounds i8, ptr %0, i64 -48
  %4 = load ptr, ptr %3, align 8
  %5 = getelementptr inbounds i8, ptr %4, i64 -72
  %6 = load i64, ptr %5, align 8
  %7 = getelementptr inbounds i8, ptr %3, i64 %6
  tail call void @_ZNK5osgeo4proj3crs14EngineeringCRS13_exportToJSONEPNS0_2io13JSONFormatterE(ptr noundef nonnull align 8 dereferenceable(16) %7, ptr noundef %1)
  ret void
}